; ModuleID = '35/2314.c'
source_filename = "35/2314.c"
target datalayout = "e-m:e-p270:32:32-p271:32:32-p272:64:64-i64:64-f80:128-n8:16:32:64-S128"
target triple = "x86_64-pc-linux-gnu"

@.str = private unnamed_addr constant [6 x i8] c"%d,%d\00", align 1
@.str.1 = private unnamed_addr constant [3 x i8] c"%d\00", align 1
@.str.2 = private unnamed_addr constant [6 x i8] c"%d+%d\00", align 1
@.str.3 = private unnamed_addr constant [3 x i8] c"No\00", align 1

; Function Attrs: noinline nounwind uwtable
define dso_local void @main() #0 {
  %1 = alloca i32, align 4
  %2 = alloca i32, align 4
  %3 = alloca i32, align 4
  %4 = alloca i32, align 4
  %5 = alloca i32, align 4
  %6 = alloca i32, align 4
  %7 = alloca i32, align 4
  %8 = alloca [10 x [10 x i32]], align 16
  %9 = call i32 (i8*, ...) @__isoc99_scanf(i8* getelementptr inbounds ([6 x i8], [6 x i8]* @.str, i64 0, i64 0), i32* %6, i32* %7)
  store i32 1, i32* %1, align 4
  br label %10

10:                                               ; preds = %31, %0
  %11 = load i32, i32* %1, align 4
  %12 = load i32, i32* %6, align 4
  %13 = icmp sle i32 %11, %12
  br i1 %13, label %14, label %34

14:                                               ; preds = %10
  store i32 1, i32* %2, align 4
  br label %15

15:                                               ; preds = %27, %14
  %16 = load i32, i32* %2, align 4
  %17 = load i32, i32* %7, align 4
  %18 = icmp sle i32 %16, %17
  br i1 %18, label %19, label %30

19:                                               ; preds = %15
  %20 = load i32, i32* %1, align 4
  %21 = sext i32 %20 to i64
  %22 = getelementptr inbounds [10 x [10 x i32]], [10 x [10 x i32]]* %8, i64 0, i64 %21
  %23 = load i32, i32* %2, align 4
  %24 = sext i32 %23 to i64
  %25 = getelementptr inbounds [10 x i32], [10 x i32]* %22, i64 0, i64 %24
  %26 = call i32 (i8*, ...) @__isoc99_scanf(i8* getelementptr inbounds ([3 x i8], [3 x i8]* @.str.1, i64 0, i64 0), i32* %25)
  br label %27

27:                                               ; preds = %19
  %28 = load i32, i32* %2, align 4
  %29 = add nsw i32 %28, 1
  store i32 %29, i32* %2, align 4
  br label %15

30:                                               ; preds = %15
  br label %31

31:                                               ; preds = %30
  %32 = load i32, i32* %1, align 4
  %33 = add nsw i32 %32, 1
  store i32 %33, i32* %1, align 4
  br label %10

34:                                               ; preds = %10
  store i32 0, i32* %4, align 4
  store i32 1, i32* %1, align 4
  br label %35

35:                                               ; preds = %110, %34
  %36 = load i32, i32* %1, align 4
  %37 = load i32, i32* %6, align 4
  %38 = icmp sle i32 %36, %37
  br i1 %38, label %39, label %113

39:                                               ; preds = %35
  store i32 1, i32* %2, align 4
  br label %40

40:                                               ; preds = %106, %39
  %41 = load i32, i32* %2, align 4
  %42 = load i32, i32* %7, align 4
  %43 = icmp sle i32 %41, %42
  br i1 %43, label %44, label %109

44:                                               ; preds = %40
  store i32 1, i32* %5, align 4
  store i32 1, i32* %3, align 4
  br label %45

45:                                               ; preds = %67, %44
  %46 = load i32, i32* %3, align 4
  %47 = load i32, i32* %7, align 4
  %48 = icmp sle i32 %46, %47
  br i1 %48, label %49, label %70

49:                                               ; preds = %45
  %50 = load i32, i32* %1, align 4
  %51 = sext i32 %50 to i64
  %52 = getelementptr inbounds [10 x [10 x i32]], [10 x [10 x i32]]* %8, i64 0, i64 %51
  %53 = load i32, i32* %2, align 4
  %54 = sext i32 %53 to i64
  %55 = getelementptr inbounds [10 x i32], [10 x i32]* %52, i64 0, i64 %54
  %56 = load i32, i32* %55, align 4
  %57 = load i32, i32* %1, align 4
  %58 = sext i32 %57 to i64
  %59 = getelementptr inbounds [10 x [10 x i32]], [10 x [10 x i32]]* %8, i64 0, i64 %58
  %60 = load i32, i32* %3, align 4
  %61 = sext i32 %60 to i64
  %62 = getelementptr inbounds [10 x i32], [10 x i32]* %59, i64 0, i64 %61
  %63 = load i32, i32* %62, align 4
  %64 = icmp slt i32 %56, %63
  br i1 %64, label %65, label %66

65:                                               ; preds = %49
  store i32 0, i32* %5, align 4
  br label %66

66:                                               ; preds = %65, %49
  br label %67

67:                                               ; preds = %66
  %68 = load i32, i32* %3, align 4
  %69 = add nsw i32 %68, 1
  store i32 %69, i32* %3, align 4
  br label %45

70:                                               ; preds = %45
  store i32 1, i32* %3, align 4
  br label %71

71:                                               ; preds = %93, %70
  %72 = load i32, i32* %3, align 4
  %73 = load i32, i32* %6, align 4
  %74 = icmp sle i32 %72, %73
  br i1 %74, label %75, label %96

75:                                               ; preds = %71
  %76 = load i32, i32* %3, align 4
  %77 = sext i32 %76 to i64
  %78 = getelementptr inbounds [10 x [10 x i32]], [10 x [10 x i32]]* %8, i64 0, i64 %77
  %79 = load i32, i32* %2, align 4
  %80 = sext i32 %79 to i64
  %81 = getelementptr inbounds [10 x i32], [10 x i32]* %78, i64 0, i64 %80
  %82 = load i32, i32* %81, align 4
  %83 = load i32, i32* %1, align 4
  %84 = sext i32 %83 to i64
  %85 = getelementptr inbounds [10 x [10 x i32]], [10 x [10 x i32]]* %8, i64 0, i64 %84
  %86 = load i32, i32* %2, align 4
  %87 = sext i32 %86 to i64
  %88 = getelementptr inbounds [10 x i32], [10 x i32]* %85, i64 0, i64 %87
  %89 = load i32, i32* %88, align 4
  %90 = icmp slt i32 %82, %89
  br i1 %90, label %91, label %92

91:                                               ; preds = %75
  store i32 0, i32* %5, align 4
  br label %92

92:                                               ; preds = %91, %75
  br label %93

93:                                               ; preds = %92
  %94 = load i32, i32* %3, align 4
  %95 = add nsw i32 %94, 1
  store i32 %95, i32* %3, align 4
  br label %71

96:                                               ; preds = %71
  %97 = load i32, i32* %5, align 4
  %98 = icmp eq i32 %97, 1
  br i1 %98, label %99, label %105

99:                                               ; preds = %96
  %100 = load i32, i32* %1, align 4
  %101 = sub nsw i32 %100, 1
  %102 = load i32, i32* %2, align 4
  %103 = sub nsw i32 %102, 1
  %104 = call i32 (i8*, ...) @printf(i8* getelementptr inbounds ([6 x i8], [6 x i8]* @.str.2, i64 0, i64 0), i32 %101, i32 %103)
  store i32 1, i32* %4, align 4
  br label %105

105:                                              ; preds = %99, %96
  br label %106

106:                                              ; preds = %105
  %107 = load i32, i32* %2, align 4
  %108 = add nsw i32 %107, 1
  store i32 %108, i32* %2, align 4
  br label %40

109:                                              ; preds = %40
  br label %110

110:                                              ; preds = %109
  %111 = load i32, i32* %1, align 4
  %112 = add nsw i32 %111, 1
  store i32 %112, i32* %1, align 4
  br label %35

113:                                              ; preds = %35
  %114 = load i32, i32* %4, align 4
  %115 = icmp eq i32 %114, 0
  br i1 %115, label %116, label %118

116:                                              ; preds = %113
  %117 = call i32 (i8*, ...) @printf(i8* getelementptr inbounds ([3 x i8], [3 x i8]* @.str.3, i64 0, i64 0))
  br label %118

118:                                              ; preds = %116, %113
  ret void
}

declare dso_local i32 @__isoc99_scanf(i8*, ...) #1

declare dso_local i32 @printf(i8*, ...) #1


!llvm.module.flags = !{!0}
!llvm.ident = !{!1}

!0 = !{i32 1, !"wchar_size", i32 4}
!1 = !{!"clang version 10.0.0-4ubuntu1 "}
